target datalayout = "e-m:e-p270:32:32-p271:32:32-p272:64:64-i64:64-i128:128-f80:128-n8:16:32:64-S128"
target triple = "x86_64-unknown-linux-gnu"

%"class.rocksdb::Status" = type { i8, i8, i8, i8, i8, i8, %"class.std::unique_ptr" }
%"class.std::unique_ptr" = type { %"struct.std::__uniq_ptr_data" }
%"struct.std::__uniq_ptr_data" = type { %"class.std::__uniq_ptr_impl" }
%"class.std::__uniq_ptr_impl" = type { %"class.std::tuple" }
%"class.std::tuple" = type { %"struct.std::_Tuple_impl" }
%"struct.std::_Tuple_impl" = type { %"struct.std::_Head_base.20" }
%"struct.std::_Head_base.20" = type { ptr }
%"class.rocksdb::IOStatus" = type { %"class.rocksdb::Status" }

@.str.2 = private unnamed_addr constant [16 x i8] c"/rocksdbtest-%d\00", align 1

; Function Attrs: mustprogress uwtable
define void @_ZN7rocksdb16ChrootFileSystem16GetTestDirectoryERKNS_9IOOptionsEPNSt7__cxx1112basic_stringIcSt11char_traitsIcESaIcEEEPNS_14IODebugContextE(ptr noalias sret(%"class.rocksdb::IOStatus") align 8 %agg.result, ptr noundef nonnull align 8 dereferenceable(80) %this, ptr noundef nonnull align 8 dereferenceable(83) %options, ptr noundef %path, ptr noundef %dbg) unnamed_addr #2 align 2 {
entry:
  %result.ptr = alloca ptr, align 8
  %this.addr = alloca ptr, align 8
  %options.addr = alloca ptr, align 8
  %path.addr = alloca ptr, align 8
  %dbg.addr = alloca ptr, align 8
  %buf = alloca [256 x i8], align 16
  store ptr %agg.result, ptr %result.ptr, align 8
  store ptr %this, ptr %this.addr, align 8
  store ptr %options, ptr %options.addr, align 8
  store ptr %path, ptr %path.addr, align 8
  store ptr %dbg, ptr %dbg.addr, align 8
  %this1 = load ptr, ptr %this.addr, align 8
  %arraydecay = getelementptr inbounds [256 x i8], ptr %buf, i64 0, i64 0
  %call = call i32 @geteuid() #4
  %call2 = call i32 (ptr, i64, ptr, ...) @snprintf(ptr noundef %arraydecay, i64 noundef 256, ptr noundef @.str.2, i32 noundef %call) #4
  %arraydecay3 = getelementptr inbounds [256 x i8], ptr %buf, i64 0, i64 0
  %0 = load ptr, ptr %path.addr, align 8
  %call4 = call noundef nonnull align 8 dereferenceable(32) ptr @_ZNSt7__cxx1112basic_stringIcSt11char_traitsIcESaIcEEaSEPKc(ptr noundef nonnull align 8 dereferenceable(32) %0, ptr noundef %arraydecay3)
  %1 = load ptr, ptr %path.addr, align 8
  %2 = load ptr, ptr %options.addr, align 8
  %3 = load ptr, ptr %dbg.addr, align 8
  %vtable = load ptr, ptr %this1, align 8
  %vfn = getelementptr inbounds ptr, ptr %vtable, i64 35
  %4 = load ptr, ptr %vfn, align 8
  call void %4(ptr sret(%"class.rocksdb::IOStatus") align 8 %agg.result, ptr noundef nonnull align 8 dereferenceable(48) %this1, ptr noundef nonnull align 8 dereferenceable(32) %1, ptr noundef nonnull align 8 dereferenceable(83) %2, ptr noundef %3)
  ret void
}