; Function Attrs: mustprogress uwtable
define void @_ZN7rocksdb16ChrootFileSystem16GetTestDirectoryERKNS_9IOOptionsEPNSt7__cxx1112basic_stringIcSt11char_traitsIcESaIcEEEPNS_14IODebugContextE(ptr noalias sret(%"class.rocksdb::IOStatus") align 8 %agg.result, ptr noundef nonnull align 8 dereferenceable(80) %this, ptr noundef nonnull align 8 dereferenceable(83) %options, ptr noundef %path, ptr noundef %dbg) unnamed_addr #3 align 2 {
entry:
  %buf = alloca [256 x i8], align 16
  %call = tail call i32 @geteuid() #20
  %call2 = call i32 (ptr, i64, ptr, ...) @snprintf(ptr noundef nonnull dereferenceable(1) %buf, i64 noundef 256, ptr noundef nonnull @.str.2, i32 noundef %call) #20
  %call4 = call noundef nonnull align 8 dereferenceable(32) ptr @_ZNSt7__cxx1112basic_stringIcSt11char_traitsIcESaIcEEaSEPKc(ptr noundef nonnull align 8 dereferenceable(32) %path, ptr noundef nonnull %buf)
  %vtable = load ptr, ptr %this, align 8
  %vfn = getelementptr inbounds i8, ptr %vtable, i64 280
  %0 = load ptr, ptr %vfn, align 8
  call void %0(ptr sret(%"class.rocksdb::IOStatus") align 8 %agg.result, ptr noundef nonnull align 8 dereferenceable(48) %this, ptr noundef nonnull align 8 dereferenceable(32) %path, ptr noundef nonnull align 8 dereferenceable(83) %options, ptr noundef %dbg)
  ret void
}